; Function Attrs: nounwind uwtable
define internal fastcc void @add_cluster(ptr noundef readonly captures(none) %0, ptr noundef nonnull %1) unnamed_addr #0 {
  %3 = getelementptr inbounds nuw i8, ptr %0, i64 16
  %4 = load ptr, ptr %3, align 8, !tbaa !3
  %5 = getelementptr inbounds nuw i8, ptr %4, i64 236
  %6 = load i32, ptr %5, align 4, !tbaa !175
  %7 = add nsw i32 %6, 1
  store i32 %7, ptr %5, align 4, !tbaa !175
  %8 = getelementptr inbounds nuw i8, ptr %4, i64 240
  %9 = load ptr, ptr %8, align 8, !tbaa !54
  %10 = sext i32 %7 to i64
  %11 = add nsw i32 %6, 2
  %12 = sext i32 %11 to i64
  %mul.ov.i = icmp slt i32 %6, -2
  br i1 %mul.ov.i, label %13, label %16

13:                                               ; preds = %2
  %14 = load ptr, ptr @stderr, align 8, !tbaa !32
  %15 = tail call i32 (ptr, ptr, ...) @fprintf(ptr noundef %14, ptr noundef nonnull @.str.20, i64 noundef %12, i64 noundef 8) #24
  tail call fastcc void @graphviz_exit() #25
  unreachable

16:                                               ; preds = %2
  %17 = shl nsw i64 %10, 3
  %18 = shl nsw i64 %12, 3
  %19 = icmp eq i32 %11, 0
  br i1 %19, label %20, label %21

20:                                               ; preds = %16
  tail call void @free(ptr noundef %9) #22
  br label %gv_recalloc.exit

21:                                               ; preds = %16
  %22 = tail call ptr @realloc(ptr noundef %9, i64 noundef %18) #29
  %23 = icmp eq ptr %22, null
  br i1 %23, label %24, label %27

24:                                               ; preds = %21
  %25 = load ptr, ptr @stderr, align 8, !tbaa !32
  %26 = tail call i32 (ptr, ptr, ...) @fprintf(ptr noundef %25, ptr noundef nonnull @.str.21, i64 noundef %18) #24
  tail call fastcc void @graphviz_exit() #25
  unreachable

27:                                               ; preds = %21
  %28 = icmp ugt i64 %18, %17
  br i1 %28, label %29, label %gv_recalloc.exit

29:                                               ; preds = %27
  %30 = getelementptr inbounds nuw i8, ptr %22, i64 %17
  %31 = sub nuw nsw i64 %18, %17
  tail call void @llvm.memset.p0.i64(ptr noundef nonnull align 1 dereferenceable(1) %30, i8 0, i64 %31, i1 false)
  br label %gv_recalloc.exit

gv_recalloc.exit:                                 ; preds = %20, %27, %29
  %.0.i.i = phi ptr [ null, %20 ], [ %22, %29 ], [ %22, %27 ]
  %32 = load ptr, ptr %3, align 8, !tbaa !3
  %33 = getelementptr inbounds nuw i8, ptr %32, i64 240
  store ptr %.0.i.i, ptr %33, align 8, !tbaa !54
  %34 = getelementptr inbounds ptr, ptr %.0.i.i, i64 %10
  store ptr %1, ptr %34, align 8, !tbaa !115
  tail call void @do_graph_label(ptr noundef nonnull %1) #22
  ret void
}